target datalayout = "e-m:e-p270:32:32-p271:32:32-p272:64:64-i64:64-i128:128-f80:128-n8:16:32:64-S128"
target triple = "x86_64-pc-linux-gnu"

; Function Attrs: alwaysinline nounwind willreturn memory(none) uwtable
define internal i32 @av_clip_uintp2_c(i32 noundef %0, i32 noundef %1) #6 {
  %3 = alloca i32, align 4
  %4 = alloca i32, align 4
  %5 = alloca i32, align 4
  store i32 %0, ptr %4, align 4, !tbaa !9
  store i32 %1, ptr %5, align 4, !tbaa !9
  %6 = load i32, ptr %4, align 4, !tbaa !9
  %7 = load i32, ptr %5, align 4, !tbaa !9
  %8 = shl i32 1, %7
  %9 = sub i32 %8, 1
  %10 = xor i32 %9, -1
  %11 = and i32 %6, %10
  %12 = icmp ne i32 %11, 0
  br i1 %12, label %13, label %21

13:                                               ; preds = %2
  %14 = load i32, ptr %4, align 4, !tbaa !9
  %15 = xor i32 %14, -1
  %16 = ashr i32 %15, 31
  %17 = load i32, ptr %5, align 4, !tbaa !9
  %18 = shl i32 1, %17
  %19 = sub i32 %18, 1
  %20 = and i32 %16, %19
  store i32 %20, ptr %3, align 4
  br label %23

21:                                               ; preds = %2
  %22 = load i32, ptr %4, align 4, !tbaa !9
  store i32 %22, ptr %3, align 4
  br label %23

23:                                               ; preds = %21, %13
  %24 = load i32, ptr %3, align 4
  ret i32 %24
}

; Function Attrs: alwaysinline nounwind willreturn memory(none) uwtable
define internal i32 @av_clip_c(i32 noundef %0, i32 noundef %1, i32 noundef %2) #6 {
  %4 = alloca i32, align 4
  %5 = alloca i32, align 4
  %6 = alloca i32, align 4
  %7 = alloca i32, align 4
  store i32 %0, ptr %5, align 4, !tbaa !9
  store i32 %1, ptr %6, align 4, !tbaa !9
  store i32 %2, ptr %7, align 4, !tbaa !9
  %8 = load i32, ptr %5, align 4, !tbaa !9
  %9 = load i32, ptr %6, align 4, !tbaa !9
  %10 = icmp slt i32 %8, %9
  br i1 %10, label %11, label %13

11:                                               ; preds = %3
  %12 = load i32, ptr %6, align 4, !tbaa !9
  store i32 %12, ptr %4, align 4
  br label %21

13:                                               ; preds = %3
  %14 = load i32, ptr %5, align 4, !tbaa !9
  %15 = load i32, ptr %7, align 4, !tbaa !9
  %16 = icmp sgt i32 %14, %15
  br i1 %16, label %17, label %19

17:                                               ; preds = %13
  %18 = load i32, ptr %7, align 4, !tbaa !9
  store i32 %18, ptr %4, align 4
  br label %21

19:                                               ; preds = %13
  %20 = load i32, ptr %5, align 4, !tbaa !9
  store i32 %20, ptr %4, align 4
  br label %21

21:                                               ; preds = %19, %17, %11
  %22 = load i32, ptr %4, align 4
  ret i32 %22
}

; Function Attrs: alwaysinline nounwind uwtable
define internal void @h264_loop_filter_chroma_9_c(ptr noundef %0, i64 noundef %1, i64 noundef %2, i32 noundef %3, i32 noundef %4, i32 noundef %5, ptr noundef %6) #7 {
  %8 = alloca ptr, align 8
  %9 = alloca i64, align 8
  %10 = alloca i64, align 8
  %11 = alloca i32, align 4
  %12 = alloca i32, align 4
  %13 = alloca i32, align 4
  %14 = alloca ptr, align 8
  %15 = alloca ptr, align 8
  %16 = alloca i32, align 4
  %17 = alloca i32, align 4
  %18 = alloca i32, align 4
  %19 = alloca i32, align 4
  %20 = alloca i32, align 4
  %21 = alloca i32, align 4
  %22 = alloca i32, align 4
  %23 = alloca i32, align 4
  %24 = alloca i32, align 4
  store ptr %0, ptr %8, align 8, !tbaa !39
  store i64 %1, ptr %9, align 8, !tbaa !53
  store i64 %2, ptr %10, align 8, !tbaa !53
  store i32 %3, ptr %11, align 4, !tbaa !9
  store i32 %4, ptr %12, align 4, !tbaa !9
  store i32 %5, ptr %13, align 4, !tbaa !9
  store ptr %6, ptr %14, align 8, !tbaa !39
  call void @llvm.lifetime.start.p0(i64 8, ptr %15) #9
  %25 = load ptr, ptr %8, align 8, !tbaa !39
  store ptr %25, ptr %15, align 8, !tbaa !41
  call void @llvm.lifetime.start.p0(i64 4, ptr %16) #9
  call void @llvm.lifetime.start.p0(i64 4, ptr %17) #9
  %26 = load i32, ptr %12, align 4, !tbaa !9
  %27 = shl i32 %26, 1
  store i32 %27, ptr %12, align 4, !tbaa !9
  %28 = load i32, ptr %13, align 4, !tbaa !9
  %29 = shl i32 %28, 1
  store i32 %29, ptr %13, align 4, !tbaa !9
  %30 = load i64, ptr %9, align 8, !tbaa !53
  %31 = ashr i64 %30, 1
  store i64 %31, ptr %9, align 8, !tbaa !53
  %32 = load i64, ptr %10, align 8, !tbaa !53
  %33 = ashr i64 %32, 1
  store i64 %33, ptr %10, align 8, !tbaa !53
  store i32 0, ptr %16, align 4, !tbaa !9
  br label %34

34:                                               ; preds = %179, %7
  %35 = load i32, ptr %16, align 4, !tbaa !9
  %36 = icmp slt i32 %35, 4
  br i1 %36, label %37, label %182

37:                                               ; preds = %34
  call void @llvm.lifetime.start.p0(i64 4, ptr %18) #9
  %38 = load ptr, ptr %14, align 8, !tbaa !39
  %39 = load i32, ptr %16, align 4, !tbaa !9
  %40 = sext i32 %39 to i64
  %41 = getelementptr inbounds i8, ptr %38, i64 %40
  %42 = load i8, ptr %41, align 1, !tbaa !50
  %43 = sext i8 %42 to i32
  %44 = sub i32 %43, 1
  %45 = shl i32 %44, 1
  %46 = add i32 %45, 1
  store i32 %46, ptr %18, align 4, !tbaa !9
  %47 = load i32, ptr %18, align 4, !tbaa !9
  %48 = icmp sle i32 %47, 0
  br i1 %48, label %49, label %56

49:                                               ; preds = %37
  %50 = load i32, ptr %11, align 4, !tbaa !9
  %51 = sext i32 %50 to i64
  %52 = load i64, ptr %10, align 8, !tbaa !53
  %53 = mul nsw i64 %51, %52
  %54 = load ptr, ptr %15, align 8, !tbaa !41
  %55 = getelementptr inbounds i16, ptr %54, i64 %53
  store ptr %55, ptr %15, align 8, !tbaa !41
  store i32 4, ptr %19, align 4
  br label %176

56:                                               ; preds = %37
  store i32 0, ptr %17, align 4, !tbaa !9
  br label %57

57:                                               ; preds = %172, %56
  %58 = load i32, ptr %17, align 4, !tbaa !9
  %59 = load i32, ptr %11, align 4, !tbaa !9
  %60 = icmp slt i32 %58, %59
  br i1 %60, label %61, label %175

61:                                               ; preds = %57
  call void @llvm.lifetime.start.p0(i64 4, ptr %20) #9
  %62 = load ptr, ptr %15, align 8, !tbaa !41
  %63 = load i64, ptr %9, align 8, !tbaa !53
  %64 = mul nsw i64 -1, %63
  %65 = getelementptr inbounds i16, ptr %62, i64 %64
  %66 = load i16, ptr %65, align 2, !tbaa !45
  %67 = zext i16 %66 to i32
  store i32 %67, ptr %20, align 4, !tbaa !9
  call void @llvm.lifetime.start.p0(i64 4, ptr %21) #9
  %68 = load ptr, ptr %15, align 8, !tbaa !41
  %69 = load i64, ptr %9, align 8, !tbaa !53
  %70 = mul nsw i64 -2, %69
  %71 = getelementptr inbounds i16, ptr %68, i64 %70
  %72 = load i16, ptr %71, align 2, !tbaa !45
  %73 = zext i16 %72 to i32
  store i32 %73, ptr %21, align 4, !tbaa !9
  call void @llvm.lifetime.start.p0(i64 4, ptr %22) #9
  %74 = load ptr, ptr %15, align 8, !tbaa !41
  %75 = getelementptr inbounds i16, ptr %74, i64 0
  %76 = load i16, ptr %75, align 2, !tbaa !45
  %77 = zext i16 %76 to i32
  store i32 %77, ptr %22, align 4, !tbaa !9
  call void @llvm.lifetime.start.p0(i64 4, ptr %23) #9
  %78 = load ptr, ptr %15, align 8, !tbaa !41
  %79 = load i64, ptr %9, align 8, !tbaa !53
  %80 = mul nsw i64 1, %79
  %81 = getelementptr inbounds i16, ptr %78, i64 %80
  %82 = load i16, ptr %81, align 2, !tbaa !45
  %83 = zext i16 %82 to i32
  store i32 %83, ptr %23, align 4, !tbaa !9
  %84 = load i32, ptr %20, align 4, !tbaa !9
  %85 = load i32, ptr %22, align 4, !tbaa !9
  %86 = sub nsw i32 %84, %85
  %87 = icmp sge i32 %86, 0
  br i1 %87, label %88, label %92

88:                                               ; preds = %61
  %89 = load i32, ptr %20, align 4, !tbaa !9
  %90 = load i32, ptr %22, align 4, !tbaa !9
  %91 = sub nsw i32 %89, %90
  br label %97

92:                                               ; preds = %61
  %93 = load i32, ptr %20, align 4, !tbaa !9
  %94 = load i32, ptr %22, align 4, !tbaa !9
  %95 = sub nsw i32 %93, %94
  %96 = sub nsw i32 0, %95
  br label %97

97:                                               ; preds = %92, %88
  %98 = phi i32 [ %91, %88 ], [ %96, %92 ]
  %99 = load i32, ptr %12, align 4, !tbaa !9
  %100 = icmp slt i32 %98, %99
  br i1 %100, label %101, label %168

101:                                              ; preds = %97
  %102 = load i32, ptr %21, align 4, !tbaa !9
  %103 = load i32, ptr %20, align 4, !tbaa !9
  %104 = sub nsw i32 %102, %103
  %105 = icmp sge i32 %104, 0
  br i1 %105, label %106, label %110

106:                                              ; preds = %101
  %107 = load i32, ptr %21, align 4, !tbaa !9
  %108 = load i32, ptr %20, align 4, !tbaa !9
  %109 = sub nsw i32 %107, %108
  br label %115

110:                                              ; preds = %101
  %111 = load i32, ptr %21, align 4, !tbaa !9
  %112 = load i32, ptr %20, align 4, !tbaa !9
  %113 = sub nsw i32 %111, %112
  %114 = sub nsw i32 0, %113
  br label %115

115:                                              ; preds = %110, %106
  %116 = phi i32 [ %109, %106 ], [ %114, %110 ]
  %117 = load i32, ptr %13, align 4, !tbaa !9
  %118 = icmp slt i32 %116, %117
  br i1 %118, label %119, label %168

119:                                              ; preds = %115
  %120 = load i32, ptr %23, align 4, !tbaa !9
  %121 = load i32, ptr %22, align 4, !tbaa !9
  %122 = sub nsw i32 %120, %121
  %123 = icmp sge i32 %122, 0
  br i1 %123, label %124, label %128

124:                                              ; preds = %119
  %125 = load i32, ptr %23, align 4, !tbaa !9
  %126 = load i32, ptr %22, align 4, !tbaa !9
  %127 = sub nsw i32 %125, %126
  br label %133

128:                                              ; preds = %119
  %129 = load i32, ptr %23, align 4, !tbaa !9
  %130 = load i32, ptr %22, align 4, !tbaa !9
  %131 = sub nsw i32 %129, %130
  %132 = sub nsw i32 0, %131
  br label %133

133:                                              ; preds = %128, %124
  %134 = phi i32 [ %127, %124 ], [ %132, %128 ]
  %135 = load i32, ptr %13, align 4, !tbaa !9
  %136 = icmp slt i32 %134, %135
  br i1 %136, label %137, label %168

137:                                              ; preds = %133
  call void @llvm.lifetime.start.p0(i64 4, ptr %24) #9
  %138 = load i32, ptr %22, align 4, !tbaa !9
  %139 = load i32, ptr %20, align 4, !tbaa !9
  %140 = sub nsw i32 %138, %139
  %141 = mul nsw i32 %140, 4
  %142 = load i32, ptr %21, align 4, !tbaa !9
  %143 = load i32, ptr %23, align 4, !tbaa !9
  %144 = sub nsw i32 %142, %143
  %145 = add nsw i32 %141, %144
  %146 = add nsw i32 %145, 4
  %147 = ashr i32 %146, 3
  %148 = load i32, ptr %18, align 4, !tbaa !9
  %149 = sub nsw i32 0, %148
  %150 = load i32, ptr %18, align 4, !tbaa !9
  %151 = call i32 @av_clip_c(i32 noundef %147, i32 noundef %149, i32 noundef %150) #10
  store i32 %151, ptr %24, align 4, !tbaa !9
  %152 = load i32, ptr %20, align 4, !tbaa !9
  %153 = load i32, ptr %24, align 4, !tbaa !9
  %154 = add nsw i32 %152, %153
  %155 = call i32 @av_clip_uintp2_c(i32 noundef %154, i32 noundef 9) #10
  %156 = trunc i32 %155 to i16
  %157 = load ptr, ptr %15, align 8, !tbaa !41
  %158 = load i64, ptr %9, align 8, !tbaa !53
  %159 = sub nsw i64 0, %158
  %160 = getelementptr inbounds i16, ptr %157, i64 %159
  store i16 %156, ptr %160, align 2, !tbaa !45
  %161 = load i32, ptr %22, align 4, !tbaa !9
  %162 = load i32, ptr %24, align 4, !tbaa !9
  %163 = sub nsw i32 %161, %162
  %164 = call i32 @av_clip_uintp2_c(i32 noundef %163, i32 noundef 9) #10
  %165 = trunc i32 %164 to i16
  %166 = load ptr, ptr %15, align 8, !tbaa !41
  %167 = getelementptr inbounds i16, ptr %166, i64 0
  store i16 %165, ptr %167, align 2, !tbaa !45
  call void @llvm.lifetime.end.p0(i64 4, ptr %24) #9
  br label %168

168:                                              ; preds = %137, %133, %115, %97
  %169 = load i64, ptr %10, align 8, !tbaa !53
  %170 = load ptr, ptr %15, align 8, !tbaa !41
  %171 = getelementptr inbounds i16, ptr %170, i64 %169
  store ptr %171, ptr %15, align 8, !tbaa !41
  call void @llvm.lifetime.end.p0(i64 4, ptr %23) #9
  call void @llvm.lifetime.end.p0(i64 4, ptr %22) #9
  call void @llvm.lifetime.end.p0(i64 4, ptr %21) #9
  call void @llvm.lifetime.end.p0(i64 4, ptr %20) #9
  br label %172

172:                                              ; preds = %168
  %173 = load i32, ptr %17, align 4, !tbaa !9
  %174 = add nsw i32 %173, 1
  store i32 %174, ptr %17, align 4, !tbaa !9
  br label %57, !llvm.loop !98

175:                                              ; preds = %57
  store i32 0, ptr %19, align 4
  br label %176

176:                                              ; preds = %175, %49
  call void @llvm.lifetime.end.p0(i64 4, ptr %18) #9
  %177 = load i32, ptr %19, align 4
  switch i32 %177, label %183 [
    i32 0, label %178
    i32 4, label %179
  ]

178:                                              ; preds = %176
  br label %179

179:                                              ; preds = %178, %176
  %180 = load i32, ptr %16, align 4, !tbaa !9
  %181 = add nsw i32 %180, 1
  store i32 %181, ptr %16, align 4, !tbaa !9
  br label %34, !llvm.loop !99

182:                                              ; preds = %34
  call void @llvm.lifetime.end.p0(i64 4, ptr %17) #9
  call void @llvm.lifetime.end.p0(i64 4, ptr %16) #9
  call void @llvm.lifetime.end.p0(i64 8, ptr %15) #9
  ret void

183:                                              ; preds = %176
  unreachable
}

; Function Attrs: nounwind uwtable
define internal void @h264_v_loop_filter_chroma_9_c(ptr noundef %0, i64 noundef %1, i32 noundef %2, i32 noundef %3, ptr noundef %4) #1 {
  %6 = alloca ptr, align 8
  %7 = alloca i64, align 8
  %8 = alloca i32, align 4
  %9 = alloca i32, align 4
  %10 = alloca ptr, align 8
  store ptr %0, ptr %6, align 8, !tbaa !39
  store i64 %1, ptr %7, align 8, !tbaa !53
  store i32 %2, ptr %8, align 4, !tbaa !9
  store i32 %3, ptr %9, align 4, !tbaa !9
  store ptr %4, ptr %10, align 8, !tbaa !39
  %11 = load ptr, ptr %6, align 8, !tbaa !39
  %12 = load i64, ptr %7, align 8, !tbaa !53
  %13 = load i32, ptr %8, align 4, !tbaa !9
  %14 = load i32, ptr %9, align 4, !tbaa !9
  %15 = load ptr, ptr %10, align 8, !tbaa !39
  call void @h264_loop_filter_chroma_9_c(ptr noundef %11, i64 noundef %12, i64 noundef 2, i32 noundef 2, i32 noundef %13, i32 noundef %14, ptr noundef %15)
  ret void
}