; Function Attrs: nofree norecurse nosync nounwind memory(argmem: readwrite) uwtable
define internal void @h264_v_loop_filter_chroma_9_c(ptr noundef captures(none) %0, i64 noundef %1, i32 noundef %2, i32 noundef %3, ptr noundef readonly captures(none) %4) #1 {
  %6 = shl i32 %2, 1
  %7 = shl i32 %3, 1
  %8 = ashr i64 %1, 1
  %9 = sub nsw i64 0, %8
  %.idx.i = mul nsw i64 %8, -4
  br label %10

10:                                               ; preds = %5, %.loopexit
  %indvars.iv = phi i64 [ 0, %5 ], [ %indvars.iv.next, %.loopexit ]
  %.0.i7 = phi ptr [ %0, %5 ], [ %.1.i, %.loopexit ]
  %11 = getelementptr inbounds nuw i8, ptr %4, i64 %indvars.iv
  %12 = load i8, ptr %11, align 1, !tbaa !42
  %13 = sext i8 %12 to i32
  %14 = shl nsw i32 %13, 1
  %15 = add nsw i32 %14, -1
  %16 = icmp slt i8 %12, 1
  br i1 %16, label %18, label %.preheader

.preheader:                                       ; preds = %10
  %17 = sub nsw i32 1, %14
  br label %20

18:                                               ; preds = %10
  %19 = getelementptr inbounds nuw i8, ptr %.0.i7, i64 4
  br label %.loopexit

20:                                               ; preds = %.preheader, %60
  %.2.i5 = phi ptr [ %.0.i7, %.preheader ], [ %61, %60 ]
  %21 = phi i1 [ true, %.preheader ], [ false, %60 ]
  %22 = getelementptr inbounds i16, ptr %.2.i5, i64 %9
  %23 = load i16, ptr %22, align 2, !tbaa !37
  %24 = zext i16 %23 to i32
  %25 = getelementptr inbounds i8, ptr %.2.i5, i64 %.idx.i
  %26 = load i16, ptr %25, align 2, !tbaa !37
  %27 = zext i16 %26 to i32
  %28 = load i16, ptr %.2.i5, align 2, !tbaa !37
  %29 = zext i16 %28 to i32
  %30 = getelementptr inbounds i16, ptr %.2.i5, i64 %8
  %31 = load i16, ptr %30, align 2, !tbaa !37
  %32 = zext i16 %31 to i32
  %33 = sub nsw i32 %24, %29
  %34 = tail call i32 @llvm.abs.i32(i32 %33, i1 true)
  %35 = icmp slt i32 %34, %6
  br i1 %35, label %36, label %60

36:                                               ; preds = %20
  %37 = sub nsw i32 %27, %24
  %38 = tail call i32 @llvm.abs.i32(i32 %37, i1 true)
  %39 = icmp slt i32 %38, %7
  br i1 %39, label %40, label %60

40:                                               ; preds = %36
  %41 = sub nsw i32 %32, %29
  %42 = tail call i32 @llvm.abs.i32(i32 %41, i1 true)
  %43 = icmp samesign ult i32 %42, %7
  br i1 %43, label %44, label %60

44:                                               ; preds = %40
  %45 = sub nsw i32 %29, %24
  %46 = shl nsw i32 %45, 2
  %47 = add nuw nsw i32 %27, 4
  %48 = sub nsw i32 %47, %32
  %49 = add nsw i32 %48, %46
  %50 = ashr i32 %49, 3
  %51 = icmp slt i32 %50, %17
  %..i.i = tail call i32 @llvm.smin.i32(i32 %50, i32 %15)
  %.0.i71.i = select i1 %51, i32 %17, i32 %..i.i
  %52 = add nsw i32 %.0.i71.i, %24
  %53 = tail call i32 @llvm.smax.i32(i32 %52, i32 0)
  %54 = tail call i32 @llvm.umin.i32(i32 %53, i32 511)
  %55 = trunc nuw nsw i32 %54 to i16
  store i16 %55, ptr %22, align 2, !tbaa !37
  %56 = sub nsw i32 %29, %.0.i71.i
  %57 = tail call i32 @llvm.smax.i32(i32 %56, i32 0)
  %58 = tail call i32 @llvm.umin.i32(i32 %57, i32 511)
  %59 = trunc nuw nsw i32 %58 to i16
  store i16 %59, ptr %.2.i5, align 2, !tbaa !37
  br label %60

60:                                               ; preds = %44, %40, %36, %20
  %61 = getelementptr inbounds nuw i8, ptr %.2.i5, i64 2
  br i1 %21, label %20, label %.loopexit, !llvm.loop !56

.loopexit:                                        ; preds = %60, %18
  %.1.i = phi ptr [ %19, %18 ], [ %61, %60 ]
  %indvars.iv.next = add nuw nsw i64 %indvars.iv, 1
  %exitcond.not = icmp eq i64 %indvars.iv.next, 4
  br i1 %exitcond.not, label %h264_loop_filter_chroma_9_c.exit, label %10, !llvm.loop !57

h264_loop_filter_chroma_9_c.exit:                 ; preds = %.loopexit
  ret void
}